target datalayout = "e-m:e-p270:32:32-p271:32:32-p272:64:64-i64:64-i128:128-f80:128-n8:16:32:64-S128"
target triple = "x86_64-unknown-linux-gnu"

%struct.UText = type { i32, i32, i32, i32, i64, i32, i32, i64, i32, i32, ptr, ptr, ptr, ptr, ptr, ptr, ptr, ptr, i64, i32, i32, i64, i32, i32 }
%"class.icu_75::UnicodeString" = type { %"class.icu_75::Replaceable", %"union.icu_75::UnicodeString::StackBufferOrFields" }
%"class.icu_75::Replaceable" = type { %"class.icu_75::UObject" }
%"class.icu_75::UObject" = type { ptr }
%"union.icu_75::UnicodeString::StackBufferOrFields" = type { %struct.anon.0, [32 x i8] }
%struct.anon.0 = type { i16, i32, i32, ptr }
%struct.anon = type { i16, [27 x i16] }

@_ZTVN6icu_7513UnicodeStringE = external unnamed_addr constant { [13 x ptr] }, align 8
@_ZTVN6icu_7511ReplaceableE = external unnamed_addr constant { [13 x ptr] }, align 8
@_ZTVN6icu_757UObjectE = external unnamed_addr constant { [5 x ptr] }, align 8

; Function Attrs: mustprogress nounwind uwtable
define linkonce_odr void @_ZN6icu_757UObjectC2Ev(ptr noundef nonnull align 8 dereferenceable(8) %this) unnamed_addr #1 comdat align 2 {
entry:
  %this.addr = alloca ptr, align 8
  store ptr %this, ptr %this.addr, align 8
  %this1 = load ptr, ptr %this.addr, align 8
  store ptr getelementptr inbounds ({ [5 x ptr] }, ptr @_ZTVN6icu_757UObjectE, i32 0, i32 0, i32 2), ptr %this1, align 8
  ret void
}

; Function Attrs: mustprogress nounwind uwtable
define linkonce_odr void @_ZN6icu_7511ReplaceableC2Ev(ptr noundef nonnull align 8 dereferenceable(8) %this) unnamed_addr #1 comdat align 2 {
entry:
  %this.addr = alloca ptr, align 8
  store ptr %this, ptr %this.addr, align 8
  %this1 = load ptr, ptr %this.addr, align 8
  call void @_ZN6icu_757UObjectC2Ev(ptr noundef nonnull align 8 dereferenceable(8) %this1) #8
  store ptr getelementptr inbounds ({ [13 x ptr] }, ptr @_ZTVN6icu_7511ReplaceableE, i32 0, i32 0, i32 2), ptr %this1, align 8
  ret void
}

; Function Attrs: mustprogress nounwind uwtable
define internal void @_ZL15invalidateChunkP5UText(ptr noundef %ut) #1 {
entry:
  %ut.addr = alloca ptr, align 8
  store ptr %ut, ptr %ut.addr, align 8
  %0 = load ptr, ptr %ut.addr, align 8
  %chunkLength = getelementptr inbounds %struct.UText, ptr %0, i32 0, i32 9
  store i32 0, ptr %chunkLength, align 4
  %1 = load ptr, ptr %ut.addr, align 8
  %chunkNativeLimit = getelementptr inbounds %struct.UText, ptr %1, i32 0, i32 4
  store i64 0, ptr %chunkNativeLimit, align 8
  %2 = load ptr, ptr %ut.addr, align 8
  %chunkNativeStart = getelementptr inbounds %struct.UText, ptr %2, i32 0, i32 7
  store i64 0, ptr %chunkNativeStart, align 8
  %3 = load ptr, ptr %ut.addr, align 8
  %chunkOffset = getelementptr inbounds %struct.UText, ptr %3, i32 0, i32 8
  store i32 0, ptr %chunkOffset, align 8
  %4 = load ptr, ptr %ut.addr, align 8
  %nativeIndexingLimit = getelementptr inbounds %struct.UText, ptr %4, i32 0, i32 6
  store i32 0, ptr %nativeIndexingLimit, align 4
  ret void
}

; Function Attrs: mustprogress uwtable
define linkonce_odr void @_ZN6icu_7513UnicodeStringC2Ev(ptr noundef nonnull align 8 dereferenceable(64) %this) unnamed_addr #0 comdat align 2 {
entry:
  %this.addr = alloca ptr, align 8
  store ptr %this, ptr %this.addr, align 8
  %this1 = load ptr, ptr %this.addr, align 8
  call void @_ZN6icu_7511ReplaceableC2Ev(ptr noundef nonnull align 8 dereferenceable(8) %this1)
  store ptr getelementptr inbounds ({ [13 x ptr] }, ptr @_ZTVN6icu_7513UnicodeStringE, i32 0, i32 0, i32 2), ptr %this1, align 8
  %fUnion2 = getelementptr inbounds %"class.icu_75::UnicodeString", ptr %this1, i32 0, i32 1
  %fLengthAndFlags = getelementptr inbounds %struct.anon, ptr %fUnion2, i32 0, i32 0
  store i16 2, ptr %fLengthAndFlags, align 8
  ret void
}

; Function Attrs: mustprogress nounwind uwtable
define internal noundef i32 @_ZL8pinIndexRll(ptr noundef nonnull align 8 dereferenceable(8) %index, i64 noundef %limit) #1 {
entry:
  %index.addr = alloca ptr, align 8
  %limit.addr = alloca i64, align 8
  store ptr %index, ptr %index.addr, align 8
  store i64 %limit, ptr %limit.addr, align 8
  %0 = load ptr, ptr %index.addr, align 8
  %1 = load i64, ptr %0, align 8
  %cmp = icmp slt i64 %1, 0
  br i1 %cmp, label %if.then, label %if.else

if.then:                                          ; preds = %entry
  %2 = load ptr, ptr %index.addr, align 8
  store i64 0, ptr %2, align 8
  br label %if.end3

if.else:                                          ; preds = %entry
  %3 = load ptr, ptr %index.addr, align 8
  %4 = load i64, ptr %3, align 8
  %5 = load i64, ptr %limit.addr, align 8
  %cmp1 = icmp sgt i64 %4, %5
  br i1 %cmp1, label %if.then2, label %if.end

if.then2:                                         ; preds = %if.else
  %6 = load i64, ptr %limit.addr, align 8
  %7 = load ptr, ptr %index.addr, align 8
  store i64 %6, ptr %7, align 8
  br label %if.end

if.end:                                           ; preds = %if.then2, %if.else
  br label %if.end3

if.end3:                                          ; preds = %if.end, %if.then
  %8 = load ptr, ptr %index.addr, align 8
  %9 = load i64, ptr %8, align 8
  %conv = trunc i64 %9 to i32
  ret i32 %conv
}

; Function Attrs: mustprogress nounwind uwtable
define internal noundef signext i8 @_ZL9U_FAILURE10UErrorCode(i32 noundef %code) #1 {
entry:
  %code.addr = alloca i32, align 4
  store i32 %code, ptr %code.addr, align 4
  %0 = load i32, ptr %code.addr, align 4
  %cmp = icmp sgt i32 %0, 0
  %conv = zext i1 %cmp to i8
  ret i8 %conv
}

; Function Attrs: mustprogress uwtable
define linkonce_odr noundef i32 @_ZNK6icu_7511Replaceable6lengthEv(ptr noundef nonnull align 8 dereferenceable(8) %this) #0 comdat align 2 {
entry:
  %this.addr = alloca ptr, align 8
  store ptr %this, ptr %this.addr, align 8
  %this1 = load ptr, ptr %this.addr, align 8
  %vtable = load ptr, ptr %this1, align 8
  %vfn = getelementptr inbounds ptr, ptr %vtable, i64 8
  %0 = load ptr, ptr %vfn, align 8
  %call = call noundef i32 %0(ptr noundef nonnull align 8 dereferenceable(8) %this1)
  ret i32 %call
}

; Function Attrs: mustprogress uwtable
define internal void @_ZL11repTextCopyP5UTextlllaP10UErrorCode(ptr noundef %ut, i64 noundef %start, i64 noundef %limit, i64 noundef %destIndex, i8 noundef signext %move, ptr noundef %status) #0 personality ptr @__gxx_personality_v0 {
entry:
  %ut.addr = alloca ptr, align 8
  %start.addr = alloca i64, align 8
  %limit.addr = alloca i64, align 8
  %destIndex.addr = alloca i64, align 8
  %move.addr = alloca i8, align 1
  %status.addr = alloca ptr, align 8
  %rep = alloca ptr, align 8
  %length = alloca i32, align 4
  %start32 = alloca i32, align 4
  %limit32 = alloca i32, align 4
  %destIndex32 = alloca i32, align 4
  %segLength = alloca i32, align 4
  %ref.tmp = alloca %"class.icu_75::UnicodeString", align 8
  %exn.slot = alloca ptr, align 8
  %ehselector.slot = alloca i32, align 4
  %firstAffectedIndex = alloca i32, align 4
  %nativeIterIndex = alloca i32, align 4
  store ptr %ut, ptr %ut.addr, align 8
  store i64 %start, ptr %start.addr, align 8
  store i64 %limit, ptr %limit.addr, align 8
  store i64 %destIndex, ptr %destIndex.addr, align 8
  store i8 %move, ptr %move.addr, align 1
  store ptr %status, ptr %status.addr, align 8
  %0 = load ptr, ptr %ut.addr, align 8
  %context = getelementptr inbounds %struct.UText, ptr %0, i32 0, i32 13
  %1 = load ptr, ptr %context, align 8
  store ptr %1, ptr %rep, align 8
  %2 = load ptr, ptr %rep, align 8
  %call = call noundef i32 @_ZNK6icu_7511Replaceable6lengthEv(ptr noundef nonnull align 8 dereferenceable(8) %2)
  store i32 %call, ptr %length, align 4
  %3 = load ptr, ptr %status.addr, align 8
  %4 = load i32, ptr %3, align 4
  %call1 = call noundef signext i8 @_ZL9U_FAILURE10UErrorCode(i32 noundef %4)
  %tobool = icmp ne i8 %call1, 0
  br i1 %tobool, label %if.then, label %if.end

if.then:                                          ; preds = %entry
  br label %return

if.end:                                           ; preds = %entry
  %5 = load i64, ptr %start.addr, align 8
  %6 = load i64, ptr %limit.addr, align 8
  %cmp = icmp sgt i64 %5, %6
  br i1 %cmp, label %if.then4, label %lor.lhs.false

lor.lhs.false:                                    ; preds = %if.end
  %7 = load i64, ptr %start.addr, align 8
  %8 = load i64, ptr %destIndex.addr, align 8
  %cmp2 = icmp slt i64 %7, %8
  br i1 %cmp2, label %land.lhs.true, label %if.end5

land.lhs.true:                                    ; preds = %lor.lhs.false
  %9 = load i64, ptr %destIndex.addr, align 8
  %10 = load i64, ptr %limit.addr, align 8
  %cmp3 = icmp slt i64 %9, %10
  br i1 %cmp3, label %if.then4, label %if.end5

if.then4:                                         ; preds = %land.lhs.true, %if.end
  %11 = load ptr, ptr %status.addr, align 8
  store i32 8, ptr %11, align 4
  br label %return

if.end5:                                          ; preds = %land.lhs.true, %lor.lhs.false
  %12 = load i32, ptr %length, align 4
  %conv = sext i32 %12 to i64
  %call6 = call noundef i32 @_ZL8pinIndexRll(ptr noundef nonnull align 8 dereferenceable(8) %start.addr, i64 noundef %conv)
  store i32 %call6, ptr %start32, align 4
  %13 = load i32, ptr %length, align 4
  %conv7 = sext i32 %13 to i64
  %call8 = call noundef i32 @_ZL8pinIndexRll(ptr noundef nonnull align 8 dereferenceable(8) %limit.addr, i64 noundef %conv7)
  store i32 %call8, ptr %limit32, align 4
  %14 = load i32, ptr %length, align 4
  %conv9 = sext i32 %14 to i64
  %call10 = call noundef i32 @_ZL8pinIndexRll(ptr noundef nonnull align 8 dereferenceable(8) %destIndex.addr, i64 noundef %conv9)
  store i32 %call10, ptr %destIndex32, align 4
  %15 = load i8, ptr %move.addr, align 1
  %tobool11 = icmp ne i8 %15, 0
  br i1 %tobool11, label %if.then12, label %if.else

if.then12:                                        ; preds = %if.end5
  %16 = load i32, ptr %limit32, align 4
  %17 = load i32, ptr %start32, align 4
  %sub = sub nsw i32 %16, %17
  store i32 %sub, ptr %segLength, align 4
  %18 = load ptr, ptr %rep, align 8
  %19 = load i32, ptr %start32, align 4
  %20 = load i32, ptr %limit32, align 4
  %21 = load i32, ptr %destIndex32, align 4
  %vtable = load ptr, ptr %18, align 8
  %vfn = getelementptr inbounds ptr, ptr %vtable, i64 5
  %22 = load ptr, ptr %vfn, align 8
  call void %22(ptr noundef nonnull align 8 dereferenceable(8) %18, i32 noundef %19, i32 noundef %20, i32 noundef %21)
  %23 = load i32, ptr %destIndex32, align 4
  %24 = load i32, ptr %start32, align 4
  %cmp13 = icmp slt i32 %23, %24
  br i1 %cmp13, label %if.then14, label %if.end16

if.then14:                                        ; preds = %if.then12
  %25 = load i32, ptr %segLength, align 4
  %26 = load i32, ptr %start32, align 4
  %add = add nsw i32 %26, %25
  store i32 %add, ptr %start32, align 4
  %27 = load i32, ptr %segLength, align 4
  %28 = load i32, ptr %limit32, align 4
  %add15 = add nsw i32 %28, %27
  store i32 %add15, ptr %limit32, align 4
  br label %if.end16

if.end16:                                         ; preds = %if.then14, %if.then12
  %29 = load ptr, ptr %rep, align 8
  %30 = load i32, ptr %start32, align 4
  %31 = load i32, ptr %limit32, align 4
  call void @_ZN6icu_7513UnicodeStringC2Ev(ptr noundef nonnull align 8 dereferenceable(64) %ref.tmp)
  %vtable17 = load ptr, ptr %29, align 8
  %vfn18 = getelementptr inbounds ptr, ptr %vtable17, i64 4
  %32 = load ptr, ptr %vfn18, align 8
  invoke void %32(ptr noundef nonnull align 8 dereferenceable(8) %29, i32 noundef %30, i32 noundef %31, ptr noundef nonnull align 8 dereferenceable(64) %ref.tmp)
          to label %invoke.cont unwind label %lpad

invoke.cont:                                      ; preds = %if.end16
  call void @_ZN6icu_7513UnicodeStringD1Ev(ptr noundef nonnull align 8 dereferenceable(64) %ref.tmp) #8
  br label %if.end21

lpad:                                             ; preds = %if.end16
  %33 = landingpad { ptr, i32 }
          cleanup
  %34 = extractvalue { ptr, i32 } %33, 0
  store ptr %34, ptr %exn.slot, align 8
  %35 = extractvalue { ptr, i32 } %33, 1
  store i32 %35, ptr %ehselector.slot, align 4
  call void @_ZN6icu_7513UnicodeStringD1Ev(ptr noundef nonnull align 8 dereferenceable(64) %ref.tmp) #8
  br label %eh.resume

if.else:                                          ; preds = %if.end5
  %36 = load ptr, ptr %rep, align 8
  %37 = load i32, ptr %start32, align 4
  %38 = load i32, ptr %limit32, align 4
  %39 = load i32, ptr %destIndex32, align 4
  %vtable19 = load ptr, ptr %36, align 8
  %vfn20 = getelementptr inbounds ptr, ptr %vtable19, i64 5
  %40 = load ptr, ptr %vfn20, align 8
  call void %40(ptr noundef nonnull align 8 dereferenceable(8) %36, i32 noundef %37, i32 noundef %38, i32 noundef %39)
  br label %if.end21

if.end21:                                         ; preds = %if.else, %invoke.cont
  %41 = load i32, ptr %destIndex32, align 4
  store i32 %41, ptr %firstAffectedIndex, align 4
  %42 = load i8, ptr %move.addr, align 1
  %tobool22 = icmp ne i8 %42, 0
  br i1 %tobool22, label %land.lhs.true23, label %if.end26

land.lhs.true23:                                  ; preds = %if.end21
  %43 = load i32, ptr %start32, align 4
  %44 = load i32, ptr %firstAffectedIndex, align 4
  %cmp24 = icmp slt i32 %43, %44
  br i1 %cmp24, label %if.then25, label %if.end26

if.then25:                                        ; preds = %land.lhs.true23
  %45 = load i32, ptr %start32, align 4
  store i32 %45, ptr %firstAffectedIndex, align 4
  br label %if.end26

if.end26:                                         ; preds = %if.then25, %land.lhs.true23, %if.end21
  %46 = load i32, ptr %firstAffectedIndex, align 4
  %conv27 = sext i32 %46 to i64
  %47 = load ptr, ptr %ut.addr, align 8
  %chunkNativeLimit = getelementptr inbounds %struct.UText, ptr %47, i32 0, i32 4
  %48 = load i64, ptr %chunkNativeLimit, align 8
  %cmp28 = icmp slt i64 %conv27, %48
  br i1 %cmp28, label %if.then29, label %if.end30

if.then29:                                        ; preds = %if.end26
  %49 = load ptr, ptr %ut.addr, align 8
  call void @_ZL15invalidateChunkP5UText(ptr noundef %49)
  br label %if.end30

if.end30:                                         ; preds = %if.then29, %if.end26
  %50 = load i32, ptr %destIndex32, align 4
  %51 = load i32, ptr %limit32, align 4
  %add31 = add nsw i32 %50, %51
  %52 = load i32, ptr %start32, align 4
  %sub32 = sub nsw i32 %add31, %52
  store i32 %sub32, ptr %nativeIterIndex, align 4
  %53 = load i8, ptr %move.addr, align 1
  %tobool33 = icmp ne i8 %53, 0
  br i1 %tobool33, label %land.lhs.true34, label %if.end37

land.lhs.true34:                                  ; preds = %if.end30
  %54 = load i32, ptr %destIndex32, align 4
  %55 = load i32, ptr %start32, align 4
  %cmp35 = icmp sgt i32 %54, %55
  br i1 %cmp35, label %if.then36, label %if.end37

if.then36:                                        ; preds = %land.lhs.true34
  %56 = load i32, ptr %destIndex32, align 4
  store i32 %56, ptr %nativeIterIndex, align 4
  br label %if.end37

if.end37:                                         ; preds = %if.then36, %land.lhs.true34, %if.end30
  %57 = load ptr, ptr %ut.addr, align 8
  %58 = load i32, ptr %nativeIterIndex, align 4
  %conv38 = sext i32 %58 to i64
  %call39 = call noundef signext i8 @_ZL13repTextAccessP5UTextla(ptr noundef %57, i64 noundef %conv38, i8 noundef signext 1)
  br label %return

return:                                           ; preds = %if.end37, %if.then4, %if.then
  ret void

eh.resume:                                        ; preds = %lpad
  %exn = load ptr, ptr %exn.slot, align 8
  %sel = load i32, ptr %ehselector.slot, align 4
  %lpad.val = insertvalue { ptr, i32 } poison, ptr %exn, 0
  %lpad.val40 = insertvalue { ptr, i32 } %lpad.val, i32 %sel, 1
  resume { ptr, i32 } %lpad.val40
}