; Function Attrs: mustprogress uwtable
define internal void @_ZL11repTextCopyP5UTextlllaP10UErrorCode(ptr nocapture noundef %ut, i64 noundef %start, i64 noundef %limit, i64 noundef %destIndex, i8 noundef signext %move, ptr nocapture noundef %status) #0 personality ptr @__gxx_personality_v0 {
entry:
  %ref.tmp = alloca %"class.icu_75::UnicodeString", align 8
  %context = getelementptr inbounds i8, ptr %ut, i64 72
  %0 = load ptr, ptr %context, align 8
  %vtable.i = load ptr, ptr %0, align 8
  %vfn.i = getelementptr inbounds i8, ptr %vtable.i, i64 64
  %1 = load ptr, ptr %vfn.i, align 8
  %call.i = tail call noundef i32 %1(ptr noundef nonnull align 8 dereferenceable(8) %0)
  %2 = load i32, ptr %status, align 4
  %cmp.i = icmp slt i32 %2, 1
  br i1 %cmp.i, label %if.end, label %return

if.end:                                           ; preds = %entry
  %cmp = icmp sgt i64 %start, %limit
  br i1 %cmp, label %if.then4, label %lor.lhs.false

lor.lhs.false:                                    ; preds = %if.end
  %cmp2 = icmp slt i64 %start, %destIndex
  %cmp3 = icmp slt i64 %destIndex, %limit
  %or.cond = and i1 %cmp2, %cmp3
  br i1 %or.cond, label %if.then4, label %if.end5

if.then4:                                         ; preds = %lor.lhs.false, %if.end
  store i32 8, ptr %status, align 4
  br label %return

if.end5:                                          ; preds = %lor.lhs.false
  %conv = sext i32 %call.i to i64
  %cmp.i39 = icmp slt i64 %start, 0
  %spec.select = tail call i64 @llvm.smin.i64(i64 %conv, i64 %start)
  %3 = trunc i64 %spec.select to i32
  %conv.i40 = select i1 %cmp.i39, i32 0, i32 %3
  %cmp.i41 = icmp slt i64 %limit, 0
  %spec.select58 = tail call i64 @llvm.smin.i64(i64 %conv, i64 %limit)
  %4 = trunc i64 %spec.select58 to i32
  %conv.i44 = select i1 %cmp.i41, i32 0, i32 %4
  %cmp.i48 = icmp slt i64 %destIndex, 0
  %spec.select59 = tail call i64 @llvm.smin.i64(i64 %conv, i64 %destIndex)
  %5 = trunc i64 %spec.select59 to i32
  %conv.i51 = select i1 %cmp.i48, i32 0, i32 %5
  %tobool11.not = icmp ne i8 %move, 0
  %vtable = load ptr, ptr %0, align 8
  %vfn = getelementptr inbounds i8, ptr %vtable, i64 40
  %6 = load ptr, ptr %vfn, align 8
  tail call void %6(ptr noundef nonnull align 8 dereferenceable(8) %0, i32 noundef %conv.i40, i32 noundef %conv.i44, i32 noundef %conv.i51)
  br i1 %tobool11.not, label %if.then12, label %if.end21

if.then12:                                        ; preds = %if.end5
  %cmp13 = icmp slt i32 %conv.i51, %conv.i40
  %sub = sub nsw i32 %conv.i44, %conv.i40
  %add15 = select i1 %cmp13, i32 %sub, i32 0
  %limit32.0 = add nsw i32 %add15, %conv.i44
  %start32.0 = select i1 %cmp13, i32 %conv.i44, i32 %conv.i40
  store ptr getelementptr inbounds ({ [13 x ptr] }, ptr @_ZTVN6icu_7513UnicodeStringE, i64 0, i32 0, i64 2), ptr %ref.tmp, align 8
  %fUnion2.i = getelementptr inbounds i8, ptr %ref.tmp, i64 8
  store i16 2, ptr %fUnion2.i, align 8
  %vtable17 = load ptr, ptr %0, align 8
  %vfn18 = getelementptr inbounds i8, ptr %vtable17, i64 32
  %7 = load ptr, ptr %vfn18, align 8
  invoke void %7(ptr noundef nonnull align 8 dereferenceable(8) %0, i32 noundef %start32.0, i32 noundef %limit32.0, ptr noundef nonnull align 8 dereferenceable(64) %ref.tmp)
          to label %invoke.cont unwind label %lpad

invoke.cont:                                      ; preds = %if.then12
  call void @_ZN6icu_7513UnicodeStringD1Ev(ptr noundef nonnull align 8 dereferenceable(64) %ref.tmp) #14
  br label %if.end21

lpad:                                             ; preds = %if.then12
  %8 = landingpad { ptr, i32 }
          cleanup
  call void @_ZN6icu_7513UnicodeStringD1Ev(ptr noundef nonnull align 8 dereferenceable(64) %ref.tmp) #14
  resume { ptr, i32 } %8

if.end21:                                         ; preds = %if.end5, %invoke.cont
  %limit32.1 = phi i32 [ %limit32.0, %invoke.cont ], [ %conv.i44, %if.end5 ]
  %start32.1 = phi i32 [ %start32.0, %invoke.cont ], [ %conv.i40, %if.end5 ]
  %cmp24 = icmp slt i32 %start32.1, %conv.i51
  %or.cond36 = and i1 %tobool11.not, %cmp24
  %firstAffectedIndex.0 = select i1 %or.cond36, i32 %start32.1, i32 %conv.i51
  %conv27 = sext i32 %firstAffectedIndex.0 to i64
  %chunkNativeLimit = getelementptr inbounds i8, ptr %ut, i64 16
  %9 = load i64, ptr %chunkNativeLimit, align 8
  %cmp28 = icmp sgt i64 %9, %conv27
  br i1 %cmp28, label %if.then29, label %if.end30

if.then29:                                        ; preds = %if.end21
  store i64 0, ptr %chunkNativeLimit, align 8
  %nativeIndexingLimit.i = getelementptr inbounds i8, ptr %ut, i64 28
  call void @llvm.memset.p0.i64(ptr noundef nonnull align 4 dereferenceable(20) %nativeIndexingLimit.i, i8 0, i64 20, i1 false)
  br label %if.end30

if.end30:                                         ; preds = %if.then29, %if.end21
  %add31 = add nsw i32 %limit32.1, %conv.i51
  %sub32 = sub i32 %add31, %start32.1
  %nativeIterIndex.0 = select i1 %or.cond36, i32 %conv.i51, i32 %sub32
  %conv38 = sext i32 %nativeIterIndex.0 to i64
  %call39 = call noundef signext i8 @_ZL13repTextAccessP5UTextla(ptr noundef nonnull %ut, i64 noundef %conv38, i8 noundef signext 1), !range !16
  br label %return

return:                                           ; preds = %entry, %if.end30, %if.then4
  ret void
}